; Function Attrs: mustprogress nofree nounwind uwtable
define noundef zeroext i1 @_ZN32pxrInternal_v0_24__pxrReserved__15ArchGetStatModeEPKcPi(ptr noundef readonly captures(none) %0, ptr noundef writeonly captures(none) %1) local_unnamed_addr #0 {
  %3 = alloca %struct.stat, align 8
  %4 = call i32 @stat(ptr noundef %0, ptr noundef nonnull %3) #23
  %5 = icmp eq i32 %4, 0
  br i1 %5, label %6, label %9

6:                                                ; preds = %2
  %7 = getelementptr inbounds nuw i8, ptr %3, i64 24
  %8 = load i32, ptr %7, align 8
  store i32 %8, ptr %1, align 4
  br label %9

9:                                                ; preds = %2, %6
  ret i1 %5
}